; Function Attrs: mustprogress nofree norecurse nosync nounwind willreturn memory(argmem: read) uwtable
define range(i64 0, 4294967296) i64 @png_get_compression_buffer_size(ptr noalias noundef readonly %0) local_unnamed_addr #0 {
  %2 = icmp eq ptr %0, null
  br i1 %2, label %9, label %.sink.split

.sink.split:                                      ; preds = %1
  %3 = getelementptr inbounds i8, ptr %0, i64 300
  %4 = load i32, ptr %3, align 4
  %5 = and i32 %4, 32768
  %.not = icmp eq i32 %5, 0
  %. = select i1 %.not, i64 440, i64 1136
  %6 = getelementptr inbounds i8, ptr %0, i64 %.
  %7 = load i32, ptr %6, align 8
  %8 = zext i32 %7 to i64
  br label %9

9:                                                ; preds = %.sink.split, %1
  %.0.shrunk = phi i64 [ 0, %1 ], [ %8, %.sink.split ]
  ret i64 %.0.shrunk
}